Certificate:
    Data:
        Version: 3 (0x2)
        Serial Number:
            84:8b:71:2f:12:7b:95:86:68:bd:88:9c:73:9f:01:23
        Signature Algorithm: sha256WithRSAEncryption
        Issuer: CN=CA
        Validity
            Not Before: Feb  4 20:17:27 2025 GMT
            Not After : May 10 20:17:27 2027 GMT
        Subject: CN=server
        Subject Public Key Info:
            Public Key Algorithm: rsaEncryption
                Public-Key: (2048 bit)
                Modulus:
                    00:d2:15:a0:22:5c:02:d0:1c:fd:74:ba:b7:bf:2e:
                    b4:89:9b:80:75:8f:61:0f:d6:30:09:7f:24:3e:2a:
                    0c:5e:0d:0c:43:8b:4b:50:4c:92:4b:6f:29:cf:aa:
                    34:6e:f6:59:2f:74:f5:d1:3a:f0:19:ef:e8:af:01:
                    e0:5a:8e:f3:e7:ca:cb:9b:ee:e0:1d:7c:67:c9:26:
                    39:4c:7a:d7:36:56:13:1a:65:f5:3c:ff:77:b2:3c:
                    de:5e:81:e3:bc:49:92:fa:b5:c3:6b:4b:23:5d:cc:
                    6c:ba:64:ea:0f:04:42:69:57:39:41:f9:85:8b:b6:
                    34:01:b2:bd:4d:77:29:e4:b1:52:1d:e0:47:cf:31:
                    84:3b:3a:82:da:ae:b9:3f:75:eb:01:8e:71:e7:9c:
                    a4:de:4b:9f:4a:2e:a1:8d:00:95:89:93:a2:94:ba:
                    24:f6:e7:ea:b3:49:b4:3e:4b:45:12:3a:88:eb:1b:
                    23:e4:98:65:f2:97:a9:9a:2f:3c:88:04:e6:5e:0f:
                    7c:f1:f6:4c:f3:a5:a3:f9:e8:43:af:1f:81:d9:cb:
                    22:62:d5:cb:c3:e8:c5:71:65:bd:37:32:48:ac:c7:
                    e0:6c:cc:d0:f7:fd:7a:61:53:51:3b:3a:9e:bb:25:
                    57:09:69:14:a2:68:7d:1a:97:cb:14:93:76:b0:47:
                    1e:d3
                Exponent: 65537 (0x10001)
        X509v3 extensions:
            X509v3 Basic Constraints: 
                CA:FALSE
            X509v3 Subject Key Identifier: 
                A4:79:C3:72:67:51:4B:1E:E3:00:D6:53:8A:39:25:0E:7E:6F:7F:3D
            X509v3 Authority Key Identifier: 
                keyid:38:24:B3:AD:85:59:5E:97:22:7E:96:78:23:71:63:6A:E6:ED:C9:CF
                DirName:/CN=CA
                serial:33:62:34:89:C7:CF:BF:8E:18:76:9C:46:7D:9C:5F:22:29:AB:FC:68
            X509v3 Extended Key Usage: 
                TLS Web Server Authentication
            X509v3 Key Usage: 
                Digital Signature, Key Encipherment
            X509v3 Subject Alternative Name: 
                DNS:server
    Signature Algorithm: sha256WithRSAEncryption
    Signature Value:
        94:18:c0:80:a3:2b:65:e8:b5:3d:7e:88:63:57:57:6c:d9:b0:
        50:e1:cc:ee:6d:80:de:d8:ba:1f:32:ee:bd:2f:17:32:b4:71:
        8e:eb:2d:01:29:40:bf:cc:22:d2:68:ca:27:32:6e:f5:ff:e5:
        ab:91:29:d5:63:b7:eb:45:37:99:e1:26:53:e3:0e:40:f6:2b:
        da:e9:15:20:5d:1d:ee:ae:39:aa:5f:09:68:99:38:a2:5c:f1:
        f5:7e:d7:90:2c:76:fc:9e:54:12:70:c2:fa:52:8d:8a:69:11:
        c2:65:e4:a1:6c:f0:e3:72:ba:fb:64:42:3a:7a:25:da:ea:1c:
        eb:9f:49:54:2a:64:8d:75:76:18:cb:48:eb:bb:67:9e:ff:a7:
        26:6a:32:00:07:39:e5:b6:d4:65:fb:f6:5a:15:2f:fe:10:36:
        cf:04:9f:f3:06:f8:6c:6a:27:42:a8:f5:46:b2:69:76:65:cc:
        82:52:a4:1e:28:79:3e:12:02:a9:88:21:b4:1a:74:9a:e7:ef:
        e0:93:d5:e9:0f:e2:b1:7e:1c:35:88:cb:d9:4e:4d:74:08:7d:
        0a:bd:50:6d:46:16:37:27:17:37:48:d6:47:42:d0:50:ec:f4:
        21:d9:3c:bd:c7:16:11:5a:e9:43:52:f0:a8:4a:66:67:05:4a:
        1d:61:52:9f
-----BEGIN CERTIFICATE-----
MIIDVjCCAj6gAwIBAgIRAISLcS8Se5WGaL2InHOfASMwDQYJKoZIhvcNAQELBQAw
DTELMAkGA1UEAwwCQ0EwHhcNMjUwMjA0MjAxNzI3WhcNMjcwNTEwMjAxNzI3WjAR
MQ8wDQYDVQQDDAZzZXJ2ZXIwggEiMA0GCSqGSIb3DQEBAQUAA4IBDwAwggEKAoIB
AQDSFaAiXALQHP10ure/LrSJm4B1j2EP1jAJfyQ+KgxeDQxDi0tQTJJLbynPqjRu
9lkvdPXROvAZ7+ivAeBajvPnysub7uAdfGfJJjlMetc2VhMaZfU8/3eyPN5egeO8
SZL6tcNrSyNdzGy6ZOoPBEJpVzlB+YWLtjQBsr1NdynksVId4EfPMYQ7OoLarrk/
desBjnHnnKTeS59KLqGNAJWJk6KUuiT25+qzSbQ+S0USOojrGyPkmGXyl6maLzyI
BOZeD3zx9kzzpaP56EOvH4HZyyJi1cvD6MVxZb03Mkisx+BszND3/XphU1E7Op67
JVcJaRSiaH0al8sUk3awRx7TAgMBAAGjgawwgakwCQYDVR0TBAIwADAdBgNVHQ4E
FgQUpHnDcmdRSx7jANZTijklDn5vfz0wSAYDVR0jBEEwP4AUOCSzrYVZXpcifpZ4
I3Fjaubtyc+hEaQPMA0xCzAJBgNVBAMMAkNBghQzYjSJx8+/jhh2nEZ9nF8iKav8
aDATBgNVHSUEDDAKBggrBgEFBQcDATALBgNVHQ8EBAMCBaAwEQYDVR0RBAowCIIG
c2VydmVyMA0GCSqGSIb3DQEBCwUAA4IBAQCUGMCAoytl6LU9fohjV1ds2bBQ4czu
bYDe2LofMu69LxcytHGO6y0BKUC/zCLSaMonMm71/+WrkSnVY7frRTeZ4SZT4w5A
9iva6RUgXR3urjmqXwlomTiiXPH1fteQLHb8nlQScML6Uo2KaRHCZeShbPDjcrr7
ZEI6eiXa6hzrn0lUKmSNdXYYy0jru2ee/6cmajIABznlttRl+/ZaFS/+EDbPBJ/z
BvhsaidCqPVGsml2ZcyCUqQeKHk+EgKpiCG0GnSa5+/gk9XpD+Kxfhw1iMvZTk10
CH0KvVBtRhY3Jxc3SNZHQtBQ7PQh2Ty9xxYRWulDUvCoSmZnBUodYVKf
-----END CERTIFICATE-----
